; Function Attrs: nounwind uwtable
define internal void @apply_mid_side_stereo(ptr noundef readonly captures(none) %0, ptr noundef %1) #3 {
  %3 = getelementptr inbounds nuw i8, ptr %1, i64 224
  %4 = load ptr, ptr %3, align 8, !tbaa !69
  %5 = getelementptr inbounds nuw i8, ptr %1, i64 160
  %6 = load i32, ptr %5, align 8, !tbaa !59
  %7 = icmp sgt i32 %6, 0
  br i1 %7, label %.preheader46.lr.ph, label %._crit_edge54

.preheader46.lr.ph:                               ; preds = %2
  %8 = getelementptr inbounds nuw i8, ptr %1, i64 46016
  %9 = getelementptr inbounds nuw i8, ptr %1, i64 5664
  %10 = getelementptr inbounds nuw i8, ptr %1, i64 4
  %11 = getelementptr inbounds nuw i8, ptr %1, i64 5
  %12 = getelementptr inbounds nuw i8, ptr %1, i64 4116
  %13 = getelementptr inbounds nuw i8, ptr %1, i64 44468
  %14 = getelementptr inbounds nuw i8, ptr %1, i64 168
  %15 = getelementptr inbounds nuw i8, ptr %0, i64 9536
  %.pre = load i8, ptr %10, align 4, !tbaa !70
  br label %.preheader46

.preheader46:                                     ; preds = %.preheader46.lr.ph, %._crit_edge
  %16 = phi i32 [ %6, %.preheader46.lr.ph ], [ %20, %._crit_edge ]
  %17 = phi i8 [ %.pre, %.preheader46.lr.ph ], [ %21, %._crit_edge ]
  %18 = phi i8 [ %.pre, %.preheader46.lr.ph ], [ %22, %._crit_edge ]
  %indvars.iv61 = phi i64 [ 0, %.preheader46.lr.ph ], [ %indvars.iv.next62, %._crit_edge ]
  %.04153 = phi ptr [ %9, %.preheader46.lr.ph ], [ %27, %._crit_edge ]
  %.04451 = phi ptr [ %8, %.preheader46.lr.ph ], [ %28, %._crit_edge ]
  %.not55 = icmp eq i8 %18, 0
  br i1 %.not55, label %._crit_edge, label %.lr.ph50

.lr.ph50:                                         ; preds = %.preheader46
  %19 = getelementptr inbounds nuw [8 x i8], ptr %14, i64 0, i64 %indvars.iv61
  br label %31

._crit_edge54:                                    ; preds = %._crit_edge, %2
  ret void

._crit_edge.loopexit:                             ; preds = %.loopexit
  %.pre65 = load i32, ptr %5, align 8, !tbaa !59
  br label %._crit_edge

._crit_edge:                                      ; preds = %._crit_edge.loopexit, %.preheader46
  %20 = phi i32 [ %.pre65, %._crit_edge.loopexit ], [ %16, %.preheader46 ]
  %21 = phi i8 [ %67, %._crit_edge.loopexit ], [ %17, %.preheader46 ]
  %22 = phi i8 [ %67, %._crit_edge.loopexit ], [ 0, %.preheader46 ]
  %23 = getelementptr inbounds nuw [8 x i8], ptr %14, i64 0, i64 %indvars.iv61
  %24 = load i8, ptr %23, align 1, !tbaa !58
  %25 = zext i8 %24 to i64
  %26 = shl nuw nsw i64 %25, 7
  %27 = getelementptr inbounds nuw float, ptr %.04153, i64 %26
  %28 = getelementptr inbounds nuw float, ptr %.04451, i64 %26
  %indvars.iv.next62 = add nuw nsw i64 %indvars.iv61, 1
  %29 = sext i32 %20 to i64
  %30 = icmp slt i64 %indvars.iv.next62, %29
  br i1 %30, label %.preheader46, label %._crit_edge54, !llvm.loop !74

31:                                               ; preds = %.lr.ph50, %.loopexit
  %32 = phi i8 [ %17, %.lr.ph50 ], [ %67, %.loopexit ]
  %indvars.iv58 = phi i64 [ 0, %.lr.ph50 ], [ %indvars.iv.next59, %.loopexit ]
  %.in = phi i8 [ %18, %.lr.ph50 ], [ %67, %.loopexit ]
  %33 = zext i8 %.in to i64
  %34 = mul nuw nsw i64 %indvars.iv61, %33
  %35 = add nuw nsw i64 %34, %indvars.iv58
  %36 = getelementptr inbounds nuw [128 x i8], ptr %11, i64 0, i64 %35
  %37 = load i8, ptr %36, align 1, !tbaa !58
  %.not = icmp eq i8 %37, 0
  br i1 %.not, label %.loopexit, label %38

38:                                               ; preds = %31
  %39 = getelementptr inbounds nuw [128 x i32], ptr %12, i64 0, i64 %35
  %40 = load i32, ptr %39, align 4, !tbaa !64
  %41 = icmp ult i32 %40, 13
  br i1 %41, label %42, label %.loopexit

42:                                               ; preds = %38
  %43 = getelementptr inbounds nuw [128 x i32], ptr %13, i64 0, i64 %35
  %44 = load i32, ptr %43, align 4, !tbaa !64
  %45 = icmp ult i32 %44, 13
  br i1 %45, label %.preheader, label %.loopexit

.preheader:                                       ; preds = %42
  %46 = load i8, ptr %19, align 1, !tbaa !58
  %.not56 = icmp eq i8 %46, 0
  br i1 %.not56, label %.loopexit, label %.lr.ph

.lr.ph:                                           ; preds = %.preheader
  %47 = getelementptr inbounds nuw i16, ptr %4, i64 %indvars.iv58
  %48 = getelementptr inbounds nuw i8, ptr %47, i64 2
  br label %49

49:                                               ; preds = %.lr.ph, %49
  %indvars.iv = phi i64 [ 0, %.lr.ph ], [ %indvars.iv.next, %49 ]
  %50 = load ptr, ptr %15, align 16, !tbaa !58
  %51 = getelementptr inbounds nuw i8, ptr %50, i64 64
  %52 = load ptr, ptr %51, align 8, !tbaa !75
  %53 = shl nuw nsw i64 %indvars.iv, 7
  %54 = getelementptr inbounds nuw float, ptr %.04153, i64 %53
  %55 = load i16, ptr %47, align 2, !tbaa !77
  %56 = zext i16 %55 to i32
  %57 = zext i16 %55 to i64
  %58 = getelementptr inbounds nuw float, ptr %54, i64 %57
  %59 = getelementptr inbounds nuw float, ptr %.04451, i64 %53
  %60 = getelementptr inbounds nuw float, ptr %59, i64 %57
  %61 = load i16, ptr %48, align 2, !tbaa !77
  %62 = zext i16 %61 to i32
  %63 = sub nsw i32 %62, %56
  tail call void %52(ptr noundef %58, ptr noundef %60, i32 noundef %63) #12
  %indvars.iv.next = add nuw nsw i64 %indvars.iv, 1
  %64 = load i8, ptr %19, align 1, !tbaa !58
  %65 = zext i8 %64 to i64
  %66 = icmp samesign ult i64 %indvars.iv.next, %65
  br i1 %66, label %49, label %.loopexit.loopexit, !llvm.loop !78

.loopexit.loopexit:                               ; preds = %49
  %.pre64 = load i8, ptr %10, align 4, !tbaa !70
  br label %.loopexit

.loopexit:                                        ; preds = %.loopexit.loopexit, %.preheader, %42, %38, %31
  %67 = phi i8 [ %.pre64, %.loopexit.loopexit ], [ %32, %.preheader ], [ %32, %42 ], [ %32, %38 ], [ %32, %31 ]
  %indvars.iv.next59 = add nuw nsw i64 %indvars.iv58, 1
  %68 = zext i8 %67 to i64
  %69 = icmp samesign ult i64 %indvars.iv.next59, %68
  br i1 %69, label %31, label %._crit_edge.loopexit, !llvm.loop !79
}